(dp0
V\u515a\u59d4\u5ba3\u4f20\u90e8 \u4fe1\u606f\u4e2d\u5fc3\u56fe\u7247\u65b0\u95fb
p1
(dp2
S'depart'
p3
V\u515a\u59d4\u5ba3\u4f20\u90e8 \u4fe1\u606f\u4e2d\u5fc3
p4
sS'title'
p5
V\u5357\u4eac\u90ae\u7535\u5927\u5b66\u601d\u60f3\u653f\u6cbb\u6559\u80b2\u5de5\u4f5c\u4f1a\u8bae\u9686\u91cd\u53ec\u5f00
p6
sS'url'
p7
Vhttp://xcb.njupt.edu.cn/s/4/t/1222/5d/63/info89443.htm
p8
sS'timestamp'
p9
I2000
sS'section'
p10
V\u56fe\u7247\u65b0\u95fb
p11
sS'date'
p12
S'2000-01-02'
p13
ssV\u515a\u59d4\u5ba3\u4f20\u90e8 \u4fe1\u606f\u4e2d\u5fc3\u901a\u77e5\u901a\u544a
p14
(dp15
g3
g4
sg5
V\u5173\u4e8e\u4e3e\u529e\u5357\u90ae\u6821\u56ed\u5361\u5c01\u9762\u8bbe\u8ba1\u5927\u8d5b\u7684\u542f\u4e8b
p16
sg7
Vhttp://xcb.njupt.edu.cn/s/4/t/1222/7b/d3/info97235.htm
p17
sg9
I2000
sg10
V\u901a\u77e5\u901a\u544a
p18
sg12
g13
ssV\u515a\u59d4\u5ba3\u4f20\u90e8 \u4fe1\u606f\u4e2d\u5fc3\u601d\u653f\u7814\u7a76
p19
(dp20
g3
g4
sg5
V\u5173\u4e8e\u7533\u62a52016\u5e74\u5357\u4eac\u90ae\u7535\u5927\u5b66\u515a\u5efa\u4e0e\u601d\u60f3\u653f\u6cbb\u6559\u80b2\u7814\u7a76\u8bfe\u9898\u7684\u901a\u77e5
p21
sg7
Vhttp://xcb.njupt.edu.cn/s/4/t/1222/77/79/info96121.htm
p22
sg9
I2000
sg10
V\u601d\u653f\u7814\u7a76
p23
sg12
g13
ssV\u515a\u59d4\u5ba3\u4f20\u90e8 \u4fe1\u606f\u4e2d\u5fc3\u5ba3\u4f20\u5728\u7ebf
p24
(dp25
g3
g4
sg5
V\u6821\u515a\u59d4\u7406\u8bba\u5b66\u4e60\u4e2d\u5fc3\u7ec4\u4e13\u9898\u5b66\u4e60\u300a\u515a\u59d4\u4f1a\u7684\u5de5\u4f5c\u65b9\u6cd5\u300b
p26
sg7
Vhttp://xcb.njupt.edu.cn/s/4/t/1222/74/36/info95286.htm
p27
sg9
I2000
sg10
V\u5ba3\u4f20\u5728\u7ebf
p28
sg12
g13
ss.